target datalayout = "e-m:e-p270:32:32-p271:32:32-p272:64:64-i64:64-i128:128-f80:128-n8:16:32:64-S128"
target triple = "x86_64-pc-linux-gnu"

%struct.ssl_st = type { i32, i16, i16, ptr, ptr, ptr, ptr, ptr, i32, i32, ptr, ptr, i32, i32, ptr, ptr, ptr, ptr, ptr, ptr, ptr, ptr, i32, i32, [32 x i8], ptr, ptr, ptr, ptr, ptr, ptr, ptr, i64, %struct.crypto_ex_data_st, ptr, i32, i32, i32, i32, i16, ptr, i32, i64, ptr, ptr, ptr, ptr, ptr, ptr, i32, i32, ptr, ptr, i8, i8, i32 }
%struct.crypto_ex_data_st = type { ptr }
%struct.ssl_protocol_method_st = type { i8, ptr, ptr, ptr, ptr, ptr, ptr, ptr, ptr, ptr, ptr, ptr, i32, ptr, ptr }
%struct.cbb_st = type { ptr, ptr, i64, i8, i8, i8 }
%struct.buf_mem_st = type { i64, ptr, i64 }

@.str = private unnamed_addr constant [117 x i8] c"generated/home/dtcxzyw/WorkSpace/Projects/compilers/llvm-opt-benchmark/bench/libquic/libquic/boringssl/ssl/s3_clnt.c\00", align 1

; Function Attrs: nounwind uwtable
define hidden i32 @ssl3_send_cert_verify(ptr noundef %0) #0 {
  %2 = alloca i32, align 4
  %3 = alloca ptr, align 8
  %4 = alloca %struct.cbb_st, align 8
  %5 = alloca %struct.cbb_st, align 8
  %6 = alloca i64, align 8
  %7 = alloca i64, align 8
  %8 = alloca i32, align 4
  %9 = alloca ptr, align 8
  %10 = alloca [64 x i8], align 16
  %11 = alloca i64, align 8
  %12 = alloca ptr, align 8
  %13 = alloca i32, align 4
  %14 = alloca ptr, align 8
  %15 = alloca i64, align 8
  store ptr %0, ptr %3, align 8, !tbaa !6
  %16 = load ptr, ptr %3, align 8, !tbaa !6
  %17 = getelementptr inbounds nuw %struct.ssl_st, ptr %16, i32 0, i32 9
  %18 = load i32, ptr %17, align 4, !tbaa !47
  %19 = icmp eq i32 %18, 4498
  br i1 %19, label %20, label %28

20:                                               ; preds = %1
  %21 = load ptr, ptr %3, align 8, !tbaa !6
  %22 = getelementptr inbounds nuw %struct.ssl_st, ptr %21, i32 0, i32 3
  %23 = load ptr, ptr %22, align 8, !tbaa !74
  %24 = getelementptr inbounds nuw %struct.ssl_protocol_method_st, ptr %23, i32 0, i32 14
  %25 = load ptr, ptr %24, align 8, !tbaa !80
  %26 = load ptr, ptr %3, align 8, !tbaa !6
  %27 = call i32 %25(ptr noundef %26)
  store i32 %27, ptr %2, align 4
  br label %169

28:                                               ; preds = %1
  call void @llvm.lifetime.start.p0(i64 32, ptr %4) #8
  call void @llvm.lifetime.start.p0(i64 32, ptr %5) #8
  %29 = load ptr, ptr %3, align 8, !tbaa !6
  %30 = getelementptr inbounds nuw %struct.ssl_st, ptr %29, i32 0, i32 10
  %31 = load ptr, ptr %30, align 8, !tbaa !48
  %32 = getelementptr inbounds nuw %struct.buf_mem_st, ptr %31, i32 0, i32 1
  %33 = load ptr, ptr %32, align 8, !tbaa !100
  %34 = load ptr, ptr %3, align 8, !tbaa !6
  %35 = getelementptr inbounds nuw %struct.ssl_st, ptr %34, i32 0, i32 3
  %36 = load ptr, ptr %35, align 8, !tbaa !74
  %37 = getelementptr inbounds nuw %struct.ssl_protocol_method_st, ptr %36, i32 0, i32 12
  %38 = load i32, ptr %37, align 8, !tbaa !102
  %39 = zext i32 %38 to i64
  %40 = getelementptr inbounds nuw i8, ptr %33, i64 %39
  %41 = load ptr, ptr %3, align 8, !tbaa !6
  %42 = getelementptr inbounds nuw %struct.ssl_st, ptr %41, i32 0, i32 10
  %43 = load ptr, ptr %42, align 8, !tbaa !48
  %44 = getelementptr inbounds nuw %struct.buf_mem_st, ptr %43, i32 0, i32 2
  %45 = load i64, ptr %44, align 8, !tbaa !103
  %46 = load ptr, ptr %3, align 8, !tbaa !6
  %47 = getelementptr inbounds nuw %struct.ssl_st, ptr %46, i32 0, i32 3
  %48 = load ptr, ptr %47, align 8, !tbaa !74
  %49 = getelementptr inbounds nuw %struct.ssl_protocol_method_st, ptr %48, i32 0, i32 12
  %50 = load i32, ptr %49, align 8, !tbaa !102
  %51 = zext i32 %50 to i64
  %52 = sub i64 %45, %51
  %53 = call i32 @CBB_init_fixed(ptr noundef %4, ptr noundef %40, i64 noundef %52)
  %54 = icmp ne i32 %53, 0
  br i1 %54, label %56, label %55

55:                                               ; preds = %28
  br label %167

56:                                               ; preds = %28
  %57 = load ptr, ptr %3, align 8, !tbaa !6
  %58 = call i64 @ssl_private_key_max_signature_len(ptr noundef %57)
  store i64 %58, ptr %6, align 8, !tbaa !106
  %59 = load ptr, ptr %3, align 8, !tbaa !6
  %60 = getelementptr inbounds nuw %struct.ssl_st, ptr %59, i32 0, i32 9
  %61 = load i32, ptr %60, align 4, !tbaa !47
  %62 = icmp eq i32 %61, 4496
  br i1 %62, label %63, label %107

63:                                               ; preds = %56
  call void @llvm.lifetime.start.p0(i64 8, ptr %9) #8
  store ptr null, ptr %9, align 8, !tbaa !156
  %64 = load ptr, ptr %3, align 8, !tbaa !6
  %65 = call zeroext i16 @ssl3_protocol_version(ptr noundef %64)
  %66 = zext i16 %65 to i32
  %67 = icmp sge i32 %66, 771
  br i1 %67, label %68, label %77

68:                                               ; preds = %63
  %69 = load ptr, ptr %3, align 8, !tbaa !6
  %70 = call ptr @tls1_choose_signing_digest(ptr noundef %69)
  store ptr %70, ptr %9, align 8, !tbaa !156
  %71 = load ptr, ptr %3, align 8, !tbaa !6
  %72 = load ptr, ptr %9, align 8, !tbaa !156
  %73 = call i32 @tls12_add_sigandhash(ptr noundef %71, ptr noundef %4, ptr noundef %72)
  %74 = icmp ne i32 %73, 0
  br i1 %74, label %76, label %75

75:                                               ; preds = %68
  call void @ERR_put_error(i32 noundef 16, i32 noundef 0, i32 noundef 68, ptr noundef @.str, i32 noundef 1782)
  store i32 2, ptr %13, align 4
  br label %104

76:                                               ; preds = %68
  br label %77

77:                                               ; preds = %76, %63
  call void @llvm.lifetime.start.p0(i64 64, ptr %10) #8
  call void @llvm.lifetime.start.p0(i64 8, ptr %11) #8
  %78 = load ptr, ptr %3, align 8, !tbaa !6
  %79 = getelementptr inbounds [64 x i8], ptr %10, i64 0, i64 0
  %80 = load ptr, ptr %3, align 8, !tbaa !6
  %81 = call i32 @ssl_private_key_type(ptr noundef %80)
  %82 = call i32 @ssl3_cert_verify_hash(ptr noundef %78, ptr noundef %79, ptr noundef %11, ptr noundef %9, i32 noundef %81)
  %83 = icmp ne i32 %82, 0
  br i1 %83, label %85, label %84

84:                                               ; preds = %77
  store i32 2, ptr %13, align 4
  br label %103

85:                                               ; preds = %77
  %86 = load ptr, ptr %3, align 8, !tbaa !6
  call void @ssl3_free_handshake_buffer(ptr noundef %86)
  call void @llvm.lifetime.start.p0(i64 8, ptr %12) #8
  %87 = call i32 @CBB_add_u16_length_prefixed(ptr noundef %4, ptr noundef %5)
  %88 = icmp ne i32 %87, 0
  br i1 %88, label %89, label %93

89:                                               ; preds = %85
  %90 = load i64, ptr %6, align 8, !tbaa !106
  %91 = call i32 @CBB_reserve(ptr noundef %5, ptr noundef %12, i64 noundef %90)
  %92 = icmp ne i32 %91, 0
  br i1 %92, label %94, label %93

93:                                               ; preds = %89, %85
  store i32 2, ptr %13, align 4
  br label %102

94:                                               ; preds = %89
  %95 = load ptr, ptr %3, align 8, !tbaa !6
  %96 = load ptr, ptr %12, align 8, !tbaa !133
  %97 = load i64, ptr %6, align 8, !tbaa !106
  %98 = load ptr, ptr %9, align 8, !tbaa !156
  %99 = getelementptr inbounds [64 x i8], ptr %10, i64 0, i64 0
  %100 = load i64, ptr %11, align 8, !tbaa !106
  %101 = call i32 @ssl_private_key_sign(ptr noundef %95, ptr noundef %96, ptr noundef %7, i64 noundef %97, ptr noundef %98, ptr noundef %99, i64 noundef %100)
  store i32 %101, ptr %8, align 4, !tbaa !14
  store i32 0, ptr %13, align 4
  br label %102

102:                                              ; preds = %93, %94
  call void @llvm.lifetime.end.p0(i64 8, ptr %12) #8
  br label %103

103:                                              ; preds = %84, %102
  call void @llvm.lifetime.end.p0(i64 8, ptr %11) #8
  call void @llvm.lifetime.end.p0(i64 64, ptr %10) #8
  br label %104

104:                                              ; preds = %75, %103
  call void @llvm.lifetime.end.p0(i64 8, ptr %9) #8
  %105 = load i32, ptr %13, align 4
  switch i32 %105, label %168 [
    i32 0, label %106
    i32 2, label %167
  ]

106:                                              ; preds = %104
  br label %131

107:                                              ; preds = %56
  call void @llvm.lifetime.start.p0(i64 8, ptr %14) #8
  %108 = load ptr, ptr %3, align 8, !tbaa !6
  %109 = call zeroext i16 @ssl3_protocol_version(ptr noundef %108)
  %110 = zext i16 %109 to i32
  %111 = icmp sge i32 %110, 771
  br i1 %111, label %112, label %115

112:                                              ; preds = %107
  %113 = call i32 @CBB_did_write(ptr noundef %4, i64 noundef 2)
  %114 = icmp ne i32 %113, 0
  br i1 %114, label %115, label %122

115:                                              ; preds = %112, %107
  %116 = call i32 @CBB_add_u16_length_prefixed(ptr noundef %4, ptr noundef %5)
  %117 = icmp ne i32 %116, 0
  br i1 %117, label %118, label %122

118:                                              ; preds = %115
  %119 = load i64, ptr %6, align 8, !tbaa !106
  %120 = call i32 @CBB_reserve(ptr noundef %5, ptr noundef %14, i64 noundef %119)
  %121 = icmp ne i32 %120, 0
  br i1 %121, label %123, label %122

122:                                              ; preds = %118, %115, %112
  store i32 2, ptr %13, align 4
  br label %128

123:                                              ; preds = %118
  %124 = load ptr, ptr %3, align 8, !tbaa !6
  %125 = load ptr, ptr %14, align 8, !tbaa !133
  %126 = load i64, ptr %6, align 8, !tbaa !106
  %127 = call i32 @ssl_private_key_sign_complete(ptr noundef %124, ptr noundef %125, ptr noundef %7, i64 noundef %126)
  store i32 %127, ptr %8, align 4, !tbaa !14
  store i32 0, ptr %13, align 4
  br label %128

128:                                              ; preds = %122, %123
  call void @llvm.lifetime.end.p0(i64 8, ptr %14) #8
  %129 = load i32, ptr %13, align 4
  switch i32 %129, label %168 [
    i32 0, label %130
    i32 2, label %167
  ]

130:                                              ; preds = %128
  br label %131

131:                                              ; preds = %130, %106
  %132 = load i32, ptr %8, align 4, !tbaa !14
  switch i32 %132, label %139 [
    i32 0, label %139
    i32 2, label %133
    i32 1, label %134
  ]

133:                                              ; preds = %131
  br label %167

134:                                              ; preds = %131
  %135 = load ptr, ptr %3, align 8, !tbaa !6
  %136 = getelementptr inbounds nuw %struct.ssl_st, ptr %135, i32 0, i32 22
  store i32 9, ptr %136, align 8, !tbaa !77
  %137 = load ptr, ptr %3, align 8, !tbaa !6
  %138 = getelementptr inbounds nuw %struct.ssl_st, ptr %137, i32 0, i32 9
  store i32 4497, ptr %138, align 4, !tbaa !47
  br label %167

139:                                              ; preds = %131, %131
  %140 = load i64, ptr %7, align 8, !tbaa !106
  %141 = call i32 @CBB_did_write(ptr noundef %5, i64 noundef %140)
  %142 = icmp ne i32 %141, 0
  br i1 %142, label %143, label %156

143:                                              ; preds = %139
  %144 = call i32 @CBB_finish(ptr noundef %4, ptr noundef null, ptr noundef %15)
  %145 = icmp ne i32 %144, 0
  br i1 %145, label %146, label %156

146:                                              ; preds = %143
  %147 = load ptr, ptr %3, align 8, !tbaa !6
  %148 = getelementptr inbounds nuw %struct.ssl_st, ptr %147, i32 0, i32 3
  %149 = load ptr, ptr %148, align 8, !tbaa !74
  %150 = getelementptr inbounds nuw %struct.ssl_protocol_method_st, ptr %149, i32 0, i32 13
  %151 = load ptr, ptr %150, align 8, !tbaa !105
  %152 = load ptr, ptr %3, align 8, !tbaa !6
  %153 = load i64, ptr %15, align 8, !tbaa !106
  %154 = call i32 %151(ptr noundef %152, i32 noundef 15, i64 noundef %153)
  %155 = icmp ne i32 %154, 0
  br i1 %155, label %157, label %156

156:                                              ; preds = %146, %143, %139
  br label %167

157:                                              ; preds = %146
  %158 = load ptr, ptr %3, align 8, !tbaa !6
  %159 = getelementptr inbounds nuw %struct.ssl_st, ptr %158, i32 0, i32 9
  store i32 4498, ptr %159, align 4, !tbaa !47
  %160 = load ptr, ptr %3, align 8, !tbaa !6
  %161 = getelementptr inbounds nuw %struct.ssl_st, ptr %160, i32 0, i32 3
  %162 = load ptr, ptr %161, align 8, !tbaa !74
  %163 = getelementptr inbounds nuw %struct.ssl_protocol_method_st, ptr %162, i32 0, i32 14
  %164 = load ptr, ptr %163, align 8, !tbaa !80
  %165 = load ptr, ptr %3, align 8, !tbaa !6
  %166 = call i32 %164(ptr noundef %165)
  store i32 %166, ptr %2, align 4
  store i32 1, ptr %13, align 4
  br label %168

167:                                              ; preds = %128, %104, %156, %134, %133, %55
  call void @CBB_cleanup(ptr noundef %4)
  store i32 -1, ptr %2, align 4
  store i32 1, ptr %13, align 4
  br label %168

168:                                              ; preds = %167, %157, %128, %104
  call void @llvm.lifetime.end.p0(i64 32, ptr %5) #8
  call void @llvm.lifetime.end.p0(i64 32, ptr %4) #8
  br label %169

169:                                              ; preds = %168, %20
  %170 = load i32, ptr %2, align 4
  ret i32 %170
}