; Function Attrs: nounwind uwtable
define hidden i32 @ssl3_send_cert_verify(ptr noundef %0) local_unnamed_addr #0 {
  %2 = alloca %struct.cbb_st, align 8
  %3 = alloca %struct.cbb_st, align 8
  %4 = alloca i64, align 8
  %5 = alloca ptr, align 8
  %6 = alloca [64 x i8], align 16
  %7 = alloca i64, align 8
  %8 = alloca ptr, align 8
  %9 = alloca ptr, align 8
  %10 = alloca i64, align 8
  %11 = getelementptr inbounds nuw i8, ptr %0, i64 52
  %12 = load i32, ptr %11, align 4, !tbaa !42
  %13 = icmp eq i32 %12, 4498
  br i1 %13, label %14, label %20

14:                                               ; preds = %1
  %15 = getelementptr inbounds nuw i8, ptr %0, i64 8
  %16 = load ptr, ptr %15, align 8, !tbaa !70
  %17 = getelementptr inbounds nuw i8, ptr %16, i64 112
  %18 = load ptr, ptr %17, align 8, !tbaa !83
  %19 = tail call i32 %18(ptr noundef nonnull %0) #11
  br label %90

20:                                               ; preds = %1
  call void @llvm.lifetime.start.p0(i64 32, ptr nonnull %2) #11
  call void @llvm.lifetime.start.p0(i64 32, ptr nonnull %3) #11
  %21 = getelementptr inbounds nuw i8, ptr %0, i64 56
  %22 = load ptr, ptr %21, align 8, !tbaa !43
  %23 = getelementptr inbounds nuw i8, ptr %22, i64 8
  %24 = load ptr, ptr %23, align 8, !tbaa !99
  %25 = getelementptr inbounds nuw i8, ptr %0, i64 8
  %26 = load ptr, ptr %25, align 8, !tbaa !70
  %27 = getelementptr inbounds nuw i8, ptr %26, i64 96
  %28 = load i32, ptr %27, align 8, !tbaa !101
  %29 = zext i32 %28 to i64
  %30 = getelementptr inbounds nuw i8, ptr %24, i64 %29
  %31 = getelementptr inbounds nuw i8, ptr %22, i64 16
  %32 = load i64, ptr %31, align 8, !tbaa !102
  %33 = sub i64 %32, %29
  %34 = call i32 @CBB_init_fixed(ptr noundef nonnull %2, ptr noundef %30, i64 noundef %33) #11
  %.not = icmp eq i32 %34, 0
  br i1 %.not, label %88, label %35

35:                                               ; preds = %20
  %36 = call i64 @ssl_private_key_max_signature_len(ptr noundef nonnull %0) #11
  %37 = load i32, ptr %11, align 4, !tbaa !42
  %38 = icmp eq i32 %37, 4496
  br i1 %38, label %39, label %57

39:                                               ; preds = %35
  call void @llvm.lifetime.start.p0(i64 8, ptr nonnull %5) #11
  store ptr null, ptr %5, align 8, !tbaa !139
  %40 = call zeroext i16 @ssl3_protocol_version(ptr noundef nonnull %0) #11
  %41 = icmp ugt i16 %40, 770
  br i1 %41, label %42, label %45

42:                                               ; preds = %39
  %43 = call ptr @tls1_choose_signing_digest(ptr noundef nonnull %0) #11
  store ptr %43, ptr %5, align 8, !tbaa !139
  %44 = call i32 @tls12_add_sigandhash(ptr noundef nonnull %0, ptr noundef nonnull %2, ptr noundef %43) #11
  %.not41 = icmp eq i32 %44, 0
  br i1 %.not41, label %.thread, label %45

.thread:                                          ; preds = %42
  call void @ERR_put_error(i32 noundef 16, i32 noundef 0, i32 noundef 68, ptr noundef nonnull @.str, i32 noundef 1782) #11
  call void @llvm.lifetime.end.p0(i64 8, ptr nonnull %5) #11
  br label %88

45:                                               ; preds = %42, %39
  call void @llvm.lifetime.start.p0(i64 64, ptr nonnull %6) #11
  call void @llvm.lifetime.start.p0(i64 8, ptr nonnull %7) #11
  %46 = call i32 @ssl_private_key_type(ptr noundef nonnull %0) #11
  %47 = call i32 @ssl3_cert_verify_hash(ptr noundef nonnull %0, ptr noundef nonnull %6, ptr noundef nonnull %7, ptr noundef nonnull %5, i32 noundef %46) #11
  %.not42 = icmp eq i32 %47, 0
  br i1 %.not42, label %.thread51, label %48

.thread51:                                        ; preds = %45
  call void @llvm.lifetime.end.p0(i64 8, ptr nonnull %7) #11
  call void @llvm.lifetime.end.p0(i64 64, ptr nonnull %6) #11
  call void @llvm.lifetime.end.p0(i64 8, ptr nonnull %5) #11
  br label %88

48:                                               ; preds = %45
  call void @ssl3_free_handshake_buffer(ptr noundef nonnull %0) #11
  call void @llvm.lifetime.start.p0(i64 8, ptr nonnull %8) #11
  %49 = call i32 @CBB_add_u16_length_prefixed(ptr noundef nonnull %2, ptr noundef nonnull %3) #11
  %.not43 = icmp eq i32 %49, 0
  br i1 %.not43, label %.thread54, label %50

50:                                               ; preds = %48
  %51 = call i32 @CBB_reserve(ptr noundef nonnull %3, ptr noundef nonnull %8, i64 noundef %36) #11
  %.not44 = icmp eq i32 %51, 0
  br i1 %.not44, label %.thread54, label %52

.thread54:                                        ; preds = %50, %48
  call void @llvm.lifetime.end.p0(i64 8, ptr nonnull %8) #11
  call void @llvm.lifetime.end.p0(i64 8, ptr nonnull %7) #11
  call void @llvm.lifetime.end.p0(i64 64, ptr nonnull %6) #11
  call void @llvm.lifetime.end.p0(i64 8, ptr nonnull %5) #11
  br label %88

52:                                               ; preds = %50
  %53 = load ptr, ptr %8, align 8, !tbaa !126
  %54 = load ptr, ptr %5, align 8, !tbaa !139
  %55 = load i64, ptr %7, align 8, !tbaa !105
  %56 = call i32 @ssl_private_key_sign(ptr noundef nonnull %0, ptr noundef %53, ptr noundef nonnull %4, i64 noundef %36, ptr noundef %54, ptr noundef nonnull %6, i64 noundef %55) #11
  call void @llvm.lifetime.end.p0(i64 8, ptr nonnull %8) #11
  call void @llvm.lifetime.end.p0(i64 8, ptr nonnull %7) #11
  call void @llvm.lifetime.end.p0(i64 64, ptr nonnull %6) #11
  call void @llvm.lifetime.end.p0(i64 8, ptr nonnull %5) #11
  br label %69

57:                                               ; preds = %35
  call void @llvm.lifetime.start.p0(i64 8, ptr nonnull %9) #11
  %58 = call zeroext i16 @ssl3_protocol_version(ptr noundef nonnull %0) #11
  %59 = icmp ugt i16 %58, 770
  br i1 %59, label %60, label %62

60:                                               ; preds = %57
  %61 = call i32 @CBB_did_write(ptr noundef nonnull %2, i64 noundef 2) #11
  %.not38 = icmp eq i32 %61, 0
  br i1 %.not38, label %.thread58, label %62

62:                                               ; preds = %60, %57
  %63 = call i32 @CBB_add_u16_length_prefixed(ptr noundef nonnull %2, ptr noundef nonnull %3) #11
  %.not39 = icmp eq i32 %63, 0
  br i1 %.not39, label %.thread58, label %64

64:                                               ; preds = %62
  %65 = call i32 @CBB_reserve(ptr noundef nonnull %3, ptr noundef nonnull %9, i64 noundef %36) #11
  %.not40 = icmp eq i32 %65, 0
  br i1 %.not40, label %.thread58, label %66

.thread58:                                        ; preds = %64, %62, %60
  call void @llvm.lifetime.end.p0(i64 8, ptr nonnull %9) #11
  br label %88

66:                                               ; preds = %64
  %67 = load ptr, ptr %9, align 8, !tbaa !126
  %68 = call i32 @ssl_private_key_sign_complete(ptr noundef nonnull %0, ptr noundef %67, ptr noundef nonnull %4, i64 noundef %36) #11
  call void @llvm.lifetime.end.p0(i64 8, ptr nonnull %9) #11
  br label %69

69:                                               ; preds = %66, %52
  %.335 = phi i32 [ %56, %52 ], [ %68, %66 ]
  switch i32 %.335, label %72 [
    i32 1, label %70
    i32 2, label %88
  ]

70:                                               ; preds = %69
  %71 = getelementptr inbounds nuw i8, ptr %0, i64 144
  store i32 9, ptr %71, align 8, !tbaa !80
  store i32 4497, ptr %11, align 4, !tbaa !42
  br label %88

72:                                               ; preds = %69
  %73 = load i64, ptr %4, align 8, !tbaa !105
  %74 = call i32 @CBB_did_write(ptr noundef nonnull %3, i64 noundef %73) #11
  %.not45 = icmp eq i32 %74, 0
  br i1 %.not45, label %88, label %75

75:                                               ; preds = %72
  %76 = call i32 @CBB_finish(ptr noundef nonnull %2, ptr noundef null, ptr noundef nonnull %10) #11
  %.not46 = icmp eq i32 %76, 0
  br i1 %.not46, label %88, label %77

77:                                               ; preds = %75
  %78 = load ptr, ptr %25, align 8, !tbaa !70
  %79 = getelementptr inbounds nuw i8, ptr %78, i64 104
  %80 = load ptr, ptr %79, align 8, !tbaa !104
  %81 = load i64, ptr %10, align 8, !tbaa !105
  %82 = call i32 %80(ptr noundef nonnull %0, i32 noundef 15, i64 noundef %81) #11
  %.not47 = icmp eq i32 %82, 0
  br i1 %.not47, label %88, label %83

83:                                               ; preds = %77
  store i32 4498, ptr %11, align 4, !tbaa !42
  %84 = load ptr, ptr %25, align 8, !tbaa !70
  %85 = getelementptr inbounds nuw i8, ptr %84, i64 112
  %86 = load ptr, ptr %85, align 8, !tbaa !83
  %87 = call i32 %86(ptr noundef nonnull %0) #11
  br label %89

88:                                               ; preds = %.thread58, %.thread54, %.thread51, %.thread, %72, %75, %77, %69, %20, %70
  call void @CBB_cleanup(ptr noundef nonnull %2) #11
  br label %89

89:                                               ; preds = %88, %83
  %.137 = phi i32 [ -1, %88 ], [ %87, %83 ]
  call void @llvm.lifetime.end.p0(i64 32, ptr nonnull %3) #11
  call void @llvm.lifetime.end.p0(i64 32, ptr nonnull %2) #11
  br label %90

90:                                               ; preds = %89, %14
  %.036 = phi i32 [ %19, %14 ], [ %.137, %89 ]
  ret i32 %.036
}